target datalayout = "e-m:e-p270:32:32-p271:32:32-p272:64:64-i64:64-i128:128-f80:128-n8:16:32:64-S128"
target triple = "x86_64-unknown-linux-gnu"

%class.btVector3 = type { [4 x float] }
%struct.btMultibodyLink = type { float, %class.btVector3, i32, %class.btQuaternion, %class.btVector3, %class.btVector3, %struct.btSpatialMotionVector, %struct.btSpatialMotionVector, [6 x %struct.btSpatialMotionVector], i32, i32, %class.btQuaternion, %class.btVector3, %class.btQuaternion, %class.btVector3, %class.btVector3, %class.btVector3, %class.btVector3, %class.btVector3, [7 x float], [7 x float], [6 x float], ptr, i32, i32, i32, i32, ptr, %class.btTransform, ptr, ptr, ptr, float, float, float, float, float, float }
%struct.btSpatialMotionVector = type { %class.btVector3, %class.btVector3 }
%class.btQuaternion = type { %class.btQuadWord }
%class.btQuadWord = type { [4 x float] }
%class.btTransform = type { %class.btMatrix3x3, %class.btVector3 }
%class.btMatrix3x3 = type { [3 x %class.btVector3] }
%class.btMultiBody = type { ptr, ptr, ptr, %class.btVector3, %class.btVector3, %class.btQuaternion, %class.btQuaternion, float, %class.btVector3, %class.btVector3, %class.btVector3, %class.btVector3, %class.btVector3, [4 x i8], %class.btAlignedObjectArray, %class.btAlignedObjectArray.0, %class.btAlignedObjectArray.0, %class.btAlignedObjectArray.0, %class.btAlignedObjectArray.4, %class.btAlignedObjectArray.8, %class.btMatrix3x3, %class.btMatrix3x3, %class.btMatrix3x3, %class.btMatrix3x3, i8, i8, i8, i8, i8, float, float, float, ptr, i32, i32, i32, float, float, i8, float, float, i8, i8, i32, i32, i8, i8, i8, i8 }
%class.btAlignedObjectArray = type <{ %class.btAlignedAllocator, [3 x i8], i32, i32, [4 x i8], ptr, i8, [7 x i8] }>
%class.btAlignedAllocator = type { i8 }
%class.btAlignedObjectArray.0 = type <{ %class.btAlignedAllocator.1, [3 x i8], i32, i32, [4 x i8], ptr, i8, [7 x i8] }>
%class.btAlignedAllocator.1 = type { i8 }
%class.btAlignedObjectArray.4 = type <{ %class.btAlignedAllocator.5, [3 x i8], i32, i32, [4 x i8], ptr, i8, [7 x i8] }>
%class.btAlignedAllocator.5 = type { i8 }
%class.btAlignedObjectArray.8 = type <{ %class.btAlignedAllocator.9, [3 x i8], i32, i32, [4 x i8], ptr, i8, [7 x i8] }>
%class.btAlignedAllocator.9 = type { i8 }

; Function Attrs: mustprogress nounwind uwtable
define linkonce_odr dso_local noundef i32 @_ZNK20btAlignedObjectArrayI15btMultibodyLinkE4sizeEv(ptr noundef nonnull align 8 dereferenceable(25) %this) #1 comdat align 2 {
entry:
  %this.addr = alloca ptr, align 8
  store ptr %this, ptr %this.addr, align 8
  %this1 = load ptr, ptr %this.addr, align 8
  %m_size = getelementptr inbounds %class.btAlignedObjectArray, ptr %this1, i32 0, i32 2
  %0 = load i32, ptr %m_size, align 4
  ret i32 %0
}

; Function Attrs: mustprogress nounwind uwtable
define linkonce_odr dso_local noundef nonnull align 8 dereferenceable(688) ptr @_ZN20btAlignedObjectArrayI15btMultibodyLinkEixEi(ptr noundef nonnull align 8 dereferenceable(25) %this, i32 noundef %n) #1 comdat align 2 {
entry:
  %this.addr = alloca ptr, align 8
  %n.addr = alloca i32, align 4
  store ptr %this, ptr %this.addr, align 8
  store i32 %n, ptr %n.addr, align 4
  %this1 = load ptr, ptr %this.addr, align 8
  %m_data = getelementptr inbounds %class.btAlignedObjectArray, ptr %this1, i32 0, i32 5
  %0 = load ptr, ptr %m_data, align 8
  %1 = load i32, ptr %n.addr, align 4
  %idxprom = sext i32 %1 to i64
  %arrayidx = getelementptr inbounds %struct.btMultibodyLink, ptr %0, i64 %idxprom
  ret ptr %arrayidx
}

; Function Attrs: mustprogress uwtable
define linkonce_odr dso_local noundef i32 @_ZNK11btMultiBody11getNumLinksEv(ptr noundef nonnull align 8 dereferenceable(640) %this) #3 comdat align 2 {
entry:
  %this.addr = alloca ptr, align 8
  store ptr %this, ptr %this.addr, align 8
  %this1 = load ptr, ptr %this.addr, align 8
  %m_links = getelementptr inbounds %class.btMultiBody, ptr %this1, i32 0, i32 14
  %call = call noundef i32 @_ZNK20btAlignedObjectArrayI15btMultibodyLinkE4sizeEv(ptr noundef nonnull align 8 dereferenceable(25) %m_links)
  ret i32 %call
}

; Function Attrs: mustprogress nounwind uwtable
define linkonce_odr dso_local void @_ZN9btVector38setValueERKfS1_S1_(ptr noundef nonnull align 4 dereferenceable(16) %this, ptr noundef nonnull align 4 dereferenceable(4) %_x, ptr noundef nonnull align 4 dereferenceable(4) %_y, ptr noundef nonnull align 4 dereferenceable(4) %_z) #1 comdat align 2 {
entry:
  %this.addr = alloca ptr, align 8
  %_x.addr = alloca ptr, align 8
  %_y.addr = alloca ptr, align 8
  %_z.addr = alloca ptr, align 8
  store ptr %this, ptr %this.addr, align 8
  store ptr %_x, ptr %_x.addr, align 8
  store ptr %_y, ptr %_y.addr, align 8
  store ptr %_z, ptr %_z.addr, align 8
  %this1 = load ptr, ptr %this.addr, align 8
  %0 = load ptr, ptr %_x.addr, align 8
  %1 = load float, ptr %0, align 4
  %m_floats = getelementptr inbounds %class.btVector3, ptr %this1, i32 0, i32 0
  %arrayidx = getelementptr inbounds [4 x float], ptr %m_floats, i64 0, i64 0
  store float %1, ptr %arrayidx, align 4
  %2 = load ptr, ptr %_y.addr, align 8
  %3 = load float, ptr %2, align 4
  %m_floats2 = getelementptr inbounds %class.btVector3, ptr %this1, i32 0, i32 0
  %arrayidx3 = getelementptr inbounds [4 x float], ptr %m_floats2, i64 0, i64 1
  store float %3, ptr %arrayidx3, align 4
  %4 = load ptr, ptr %_z.addr, align 8
  %5 = load float, ptr %4, align 4
  %m_floats4 = getelementptr inbounds %class.btVector3, ptr %this1, i32 0, i32 0
  %arrayidx5 = getelementptr inbounds [4 x float], ptr %m_floats4, i64 0, i64 2
  store float %5, ptr %arrayidx5, align 4
  %m_floats6 = getelementptr inbounds %class.btVector3, ptr %this1, i32 0, i32 0
  %arrayidx7 = getelementptr inbounds [4 x float], ptr %m_floats6, i64 0, i64 3
  store float 0.000000e+00, ptr %arrayidx7, align 4
  ret void
}

; Function Attrs: mustprogress uwtable
define dso_local void @_ZN11btMultiBody21clearForcesAndTorquesEv(ptr noundef nonnull align 8 dereferenceable(640) %this) #3 align 2 {
entry:
  %this.addr = alloca ptr, align 8
  %ref.tmp = alloca float, align 4
  %ref.tmp2 = alloca float, align 4
  %ref.tmp3 = alloca float, align 4
  %ref.tmp4 = alloca float, align 4
  %ref.tmp5 = alloca float, align 4
  %ref.tmp6 = alloca float, align 4
  %i = alloca i32, align 4
  %ref.tmp8 = alloca float, align 4
  %ref.tmp9 = alloca float, align 4
  %ref.tmp10 = alloca float, align 4
  %ref.tmp13 = alloca float, align 4
  %ref.tmp14 = alloca float, align 4
  %ref.tmp15 = alloca float, align 4
  store ptr %this, ptr %this.addr, align 8
  %this1 = load ptr, ptr %this.addr, align 8
  %m_baseForce = getelementptr inbounds %class.btMultiBody, ptr %this1, i32 0, i32 9
  store float 0.000000e+00, ptr %ref.tmp, align 4
  store float 0.000000e+00, ptr %ref.tmp2, align 4
  store float 0.000000e+00, ptr %ref.tmp3, align 4
  call void @_ZN9btVector38setValueERKfS1_S1_(ptr noundef nonnull align 4 dereferenceable(16) %m_baseForce, ptr noundef nonnull align 4 dereferenceable(4) %ref.tmp, ptr noundef nonnull align 4 dereferenceable(4) %ref.tmp2, ptr noundef nonnull align 4 dereferenceable(4) %ref.tmp3)
  %m_baseTorque = getelementptr inbounds %class.btMultiBody, ptr %this1, i32 0, i32 10
  store float 0.000000e+00, ptr %ref.tmp4, align 4
  store float 0.000000e+00, ptr %ref.tmp5, align 4
  store float 0.000000e+00, ptr %ref.tmp6, align 4
  call void @_ZN9btVector38setValueERKfS1_S1_(ptr noundef nonnull align 4 dereferenceable(16) %m_baseTorque, ptr noundef nonnull align 4 dereferenceable(4) %ref.tmp4, ptr noundef nonnull align 4 dereferenceable(4) %ref.tmp5, ptr noundef nonnull align 4 dereferenceable(4) %ref.tmp6)
  store i32 0, ptr %i, align 4
  br label %for.cond

for.cond:                                         ; preds = %for.inc, %entry
  %0 = load i32, ptr %i, align 4
  %call = call noundef i32 @_ZNK11btMultiBody11getNumLinksEv(ptr noundef nonnull align 8 dereferenceable(640) %this1)
  %cmp = icmp slt i32 %0, %call
  br i1 %cmp, label %for.body, label %for.end

for.body:                                         ; preds = %for.cond
  %m_links = getelementptr inbounds %class.btMultiBody, ptr %this1, i32 0, i32 14
  %1 = load i32, ptr %i, align 4
  %call7 = call noundef nonnull align 8 dereferenceable(688) ptr @_ZN20btAlignedObjectArrayI15btMultibodyLinkEixEi(ptr noundef nonnull align 8 dereferenceable(25) %m_links, i32 noundef %1)
  %m_appliedForce = getelementptr inbounds %struct.btMultibodyLink, ptr %call7, i32 0, i32 15
  store float 0.000000e+00, ptr %ref.tmp8, align 4
  store float 0.000000e+00, ptr %ref.tmp9, align 4
  store float 0.000000e+00, ptr %ref.tmp10, align 4
  call void @_ZN9btVector38setValueERKfS1_S1_(ptr noundef nonnull align 4 dereferenceable(16) %m_appliedForce, ptr noundef nonnull align 4 dereferenceable(4) %ref.tmp8, ptr noundef nonnull align 4 dereferenceable(4) %ref.tmp9, ptr noundef nonnull align 4 dereferenceable(4) %ref.tmp10)
  %m_links11 = getelementptr inbounds %class.btMultiBody, ptr %this1, i32 0, i32 14
  %2 = load i32, ptr %i, align 4
  %call12 = call noundef nonnull align 8 dereferenceable(688) ptr @_ZN20btAlignedObjectArrayI15btMultibodyLinkEixEi(ptr noundef nonnull align 8 dereferenceable(25) %m_links11, i32 noundef %2)
  %m_appliedTorque = getelementptr inbounds %struct.btMultibodyLink, ptr %call12, i32 0, i32 16
  store float 0.000000e+00, ptr %ref.tmp13, align 4
  store float 0.000000e+00, ptr %ref.tmp14, align 4
  store float 0.000000e+00, ptr %ref.tmp15, align 4
  call void @_ZN9btVector38setValueERKfS1_S1_(ptr noundef nonnull align 4 dereferenceable(16) %m_appliedTorque, ptr noundef nonnull align 4 dereferenceable(4) %ref.tmp13, ptr noundef nonnull align 4 dereferenceable(4) %ref.tmp14, ptr noundef nonnull align 4 dereferenceable(4) %ref.tmp15)
  %m_links16 = getelementptr inbounds %class.btMultiBody, ptr %this1, i32 0, i32 14
  %3 = load i32, ptr %i, align 4
  %call17 = call noundef nonnull align 8 dereferenceable(688) ptr @_ZN20btAlignedObjectArrayI15btMultibodyLinkEixEi(ptr noundef nonnull align 8 dereferenceable(25) %m_links16, i32 noundef %3)
  %m_jointTorque = getelementptr inbounds %struct.btMultibodyLink, ptr %call17, i32 0, i32 21
  %arrayidx = getelementptr inbounds [6 x float], ptr %m_jointTorque, i64 0, i64 5
  store float 0.000000e+00, ptr %arrayidx, align 4
  %m_links18 = getelementptr inbounds %class.btMultiBody, ptr %this1, i32 0, i32 14
  %4 = load i32, ptr %i, align 4
  %call19 = call noundef nonnull align 8 dereferenceable(688) ptr @_ZN20btAlignedObjectArrayI15btMultibodyLinkEixEi(ptr noundef nonnull align 8 dereferenceable(25) %m_links18, i32 noundef %4)
  %m_jointTorque20 = getelementptr inbounds %struct.btMultibodyLink, ptr %call19, i32 0, i32 21
  %arrayidx21 = getelementptr inbounds [6 x float], ptr %m_jointTorque20, i64 0, i64 4
  store float 0.000000e+00, ptr %arrayidx21, align 8
  %m_links22 = getelementptr inbounds %class.btMultiBody, ptr %this1, i32 0, i32 14
  %5 = load i32, ptr %i, align 4
  %call23 = call noundef nonnull align 8 dereferenceable(688) ptr @_ZN20btAlignedObjectArrayI15btMultibodyLinkEixEi(ptr noundef nonnull align 8 dereferenceable(25) %m_links22, i32 noundef %5)
  %m_jointTorque24 = getelementptr inbounds %struct.btMultibodyLink, ptr %call23, i32 0, i32 21
  %arrayidx25 = getelementptr inbounds [6 x float], ptr %m_jointTorque24, i64 0, i64 3
  store float 0.000000e+00, ptr %arrayidx25, align 4
  %m_links26 = getelementptr inbounds %class.btMultiBody, ptr %this1, i32 0, i32 14
  %6 = load i32, ptr %i, align 4
  %call27 = call noundef nonnull align 8 dereferenceable(688) ptr @_ZN20btAlignedObjectArrayI15btMultibodyLinkEixEi(ptr noundef nonnull align 8 dereferenceable(25) %m_links26, i32 noundef %6)
  %m_jointTorque28 = getelementptr inbounds %struct.btMultibodyLink, ptr %call27, i32 0, i32 21
  %arrayidx29 = getelementptr inbounds [6 x float], ptr %m_jointTorque28, i64 0, i64 2
  store float 0.000000e+00, ptr %arrayidx29, align 8
  %m_links30 = getelementptr inbounds %class.btMultiBody, ptr %this1, i32 0, i32 14
  %7 = load i32, ptr %i, align 4
  %call31 = call noundef nonnull align 8 dereferenceable(688) ptr @_ZN20btAlignedObjectArrayI15btMultibodyLinkEixEi(ptr noundef nonnull align 8 dereferenceable(25) %m_links30, i32 noundef %7)
  %m_jointTorque32 = getelementptr inbounds %struct.btMultibodyLink, ptr %call31, i32 0, i32 21
  %arrayidx33 = getelementptr inbounds [6 x float], ptr %m_jointTorque32, i64 0, i64 1
  store float 0.000000e+00, ptr %arrayidx33, align 4
  %m_links34 = getelementptr inbounds %class.btMultiBody, ptr %this1, i32 0, i32 14
  %8 = load i32, ptr %i, align 4
  %call35 = call noundef nonnull align 8 dereferenceable(688) ptr @_ZN20btAlignedObjectArrayI15btMultibodyLinkEixEi(ptr noundef nonnull align 8 dereferenceable(25) %m_links34, i32 noundef %8)
  %m_jointTorque36 = getelementptr inbounds %struct.btMultibodyLink, ptr %call35, i32 0, i32 21
  %arrayidx37 = getelementptr inbounds [6 x float], ptr %m_jointTorque36, i64 0, i64 0
  store float 0.000000e+00, ptr %arrayidx37, align 8
  br label %for.inc

for.inc:                                          ; preds = %for.body
  %9 = load i32, ptr %i, align 4
  %inc = add nsw i32 %9, 1
  store i32 %inc, ptr %i, align 4
  br label %for.cond, !llvm.loop !11

for.end:                                          ; preds = %for.cond
  ret void
}