; Function Attrs: mustprogress nofree norecurse nosync nounwind memory(write, argmem: readwrite, inaccessiblemem: none) uwtable
define dso_local void @_ZN11btMultiBody21clearForcesAndTorquesEv(ptr nocapture noundef nonnull align 8 dereferenceable(640) %this) local_unnamed_addr #3 align 2 {
entry:
  %m_baseForce = getelementptr inbounds i8, ptr %this, i64 108
  %m_size.i.i = getelementptr inbounds i8, ptr %this, i64 180
  tail call void @llvm.memset.p0.i64(ptr noundef nonnull align 4 dereferenceable(32) %m_baseForce, i8 0, i64 32, i1 false)
  %0 = load i32, ptr %m_size.i.i, align 4
  %cmp40 = icmp sgt i32 %0, 0
  br i1 %cmp40, label %for.body.lr.ph, label %for.end

for.body.lr.ph:                                   ; preds = %entry
  %m_data.i = getelementptr inbounds i8, ptr %this, i64 192
  br label %for.body

for.body:                                         ; preds = %for.body.lr.ph, %for.body
  %indvars.iv = phi i64 [ 0, %for.body.lr.ph ], [ %indvars.iv.next, %for.body ]
  %1 = load ptr, ptr %m_data.i, align 8
  %m_appliedForce = getelementptr inbounds %struct.btMultibodyLink, ptr %1, i64 %indvars.iv, i32 15
  tail call void @llvm.memset.p0.i64(ptr noundef nonnull align 4 dereferenceable(16) %m_appliedForce, i8 0, i64 16, i1 false)
  %2 = load ptr, ptr %m_data.i, align 8
  %m_appliedTorque = getelementptr inbounds %struct.btMultibodyLink, ptr %2, i64 %indvars.iv, i32 16
  tail call void @llvm.memset.p0.i64(ptr noundef nonnull align 4 dereferenceable(16) %m_appliedTorque, i8 0, i64 16, i1 false)
  %3 = load ptr, ptr %m_data.i, align 8
  %arrayidx = getelementptr inbounds %struct.btMultibodyLink, ptr %3, i64 %indvars.iv, i32 21, i64 5
  store float 0.000000e+00, ptr %arrayidx, align 4
  %4 = load ptr, ptr %m_data.i, align 8
  %arrayidx21 = getelementptr inbounds %struct.btMultibodyLink, ptr %4, i64 %indvars.iv, i32 21, i64 4
  store float 0.000000e+00, ptr %arrayidx21, align 8
  %5 = load ptr, ptr %m_data.i, align 8
  %arrayidx25 = getelementptr inbounds %struct.btMultibodyLink, ptr %5, i64 %indvars.iv, i32 21, i64 3
  store float 0.000000e+00, ptr %arrayidx25, align 4
  %6 = load ptr, ptr %m_data.i, align 8
  %arrayidx29 = getelementptr inbounds %struct.btMultibodyLink, ptr %6, i64 %indvars.iv, i32 21, i64 2
  store float 0.000000e+00, ptr %arrayidx29, align 8
  %7 = load ptr, ptr %m_data.i, align 8
  %arrayidx33 = getelementptr inbounds %struct.btMultibodyLink, ptr %7, i64 %indvars.iv, i32 21, i64 1
  store float 0.000000e+00, ptr %arrayidx33, align 4
  %8 = load ptr, ptr %m_data.i, align 8
  %m_jointTorque36 = getelementptr inbounds %struct.btMultibodyLink, ptr %8, i64 %indvars.iv, i32 21
  store float 0.000000e+00, ptr %m_jointTorque36, align 8
  %indvars.iv.next = add nuw nsw i64 %indvars.iv, 1
  %9 = load i32, ptr %m_size.i.i, align 4
  %10 = sext i32 %9 to i64
  %cmp = icmp slt i64 %indvars.iv.next, %10
  br i1 %cmp, label %for.body, label %for.end, !llvm.loop !7

for.end:                                          ; preds = %for.body, %entry
  ret void
}